(dp0
S'METTS MARK'
p1
(dp2
S'to_messages'
p3
F807.0
sS'deferral_payments'
p4
F0.0
sS'expenses'
p5
F94299.0
sS'poi'
p6
I00
sS'fraction_shared_with_poi'
p7
F0.8698884758364313
sS'long_term_incentive'
p8
F0.0
sS'email_address'
p9
S'mark.metts@enron.com'
p10
sS'from_poi_to_this_person'
p11
F38.0
sS'deferred_income'
p12
F0.0
sS'fraction_from_poi'
p13
F0.04708798017348203
sS'restricted_stock_deferred'
p14
F0.0
sS'shared_receipt_with_poi'
p15
F702.0
sS'loan_advances'
p16
F0.0
sS'from_messages'
p17
F29.0
sS'other'
p18
F1740.0
sS'director_fees'
p19
F0.0
sS'bonus'
p20
F600000.0
sS'total_stock_value'
p21
F585062.0
sS'from_this_person_to_poi'
p22
F1.0
sS'restricted_stock'
p23
F585062.0
sS'salary'
p24
F365788.0
sS'total_payments'
p25
F1061827.0
sS'undeferred_restricted_stock'
p26
F585062.0
sS'fraction_to_poi'
p27
F0.034482758620689655
sS'exercised_stock_options'
p28
F0.0
ssS'BAXTER JOHN C'
p29
(dp30
g3
F0.0
sg4
F1295738.0
sg5
F11200.0
sg6
I00
sg7
F0.0
sg8
F1586055.0
sg9
I0
sg11
F0.0
sg12
F-1386055.0
sg13
F0.0
sg14
F0.0
sg15
F0.0
sg16
F0.0
sg17
F0.0
sg18
F2660303.0
sg19
F0.0
sg20
F1200000.0
sg21
F10623258.0
sg22
F0.0
sg23
F3942714.0
sg24
F267102.0
sg25
F5634343.0
sg26
F3942714.0
sg27
F0.0
sg28
F6680544.0
ssS'ELLIOTT STEVEN'
p31
(dp32
g3
F0.0
sg4
F0.0
sg5
F78552.0
sg6
I00
sg7
F0.0
sg8
F0.0
sg9
S'steven.elliott@enron.com'
p33
sg11
F0.0
sg12
F-400729.0
sg13
F0.0
sg14
F0.0
sg15
F0.0
sg16
F0.0
sg17
F0.0
sg18
F12961.0
sg19
F0.0
sg20
F350000.0
sg21
F6678735.0
sg22
F0.0
sg23
F1788391.0
sg24
F170941.0
sg25
F211725.0
sg26
F1788391.0
sg27
F0.0
sg28
F4890344.0
ssS'CORDES WILLIAM R'
p34
(dp35
g3
F764.0
sg4
F0.0
sg5
F0.0
sg6
I00
sg7
F0.07591623036649214
sg8
F0.0
sg9
S'bill.cordes@enron.com'
p36
sg11
F10.0
sg12
F0.0
sg13
F0.013089005235602094
sg14
F0.0
sg15
F58.0
sg16
F0.0
sg17
F12.0
sg18
F0.0
sg19
F0.0
sg20
F0.0
sg21
F1038185.0
sg22
F0.0
sg23
F386335.0
sg24
F0.0
sg25
F0.0
sg26
F386335.0
sg27
F0.0
sg28
F651850.0
ssS'HANNON KEVIN P'
p37
(dp38
g3
F1045.0
sg4
F0.0
sg5
F34039.0
sg6
I01
sg7
F0.9904306220095693
sg8
F1617011.0
sg9
S'kevin.hannon@enron.com'
p39
sg11
F32.0
sg12
F-3117011.0
sg13
F0.03062200956937799
sg14
F0.0
sg15
F1035.0
sg16
F0.0
sg17
F32.0
sg18
F11350.0
sg19
F0.0
sg20
F1500000.0
sg21
F6391065.0
sg22
F21.0
sg23
F853064.0
sg24
F243293.0
sg25
F288682.0
sg26
F853064.0
sg27
F0.65625
sg28
F5538001.0
ssS'MORDAUNT KRISTINA M'
p40
(dp41
g3
F0.0
sg4
F0.0
sg5
F35018.0
sg6
I00
sg7
F0.0
sg8
F0.0
sg9
S'kristina.mordaunt@enron.com'
p42
sg11
F0.0
sg12
F0.0
sg13
F0.0
sg14
F0.0
sg15
F0.0
sg16
F0.0
sg17
F0.0
sg18
F1411.0
sg19
F0.0
sg20
F325000.0
sg21
F208510.0
sg22
F0.0
sg23
F208510.0
sg24
F267093.0
sg25
F628522.0
sg26
F208510.0
sg27
F0.0
sg28
F0.0
ssS'MEYER ROCKFORD G'
p43
(dp44
g3
F232.0
sg4
F1848227.0
sg5
F0.0
sg6
I00
sg7
F0.09482758620689655
sg8
F0.0
sg9
S'rockford.meyer@enron.com'
p45
sg11
F0.0
sg12
F0.0
sg13
F0.0
sg14
F0.0
sg15
F22.0
sg16
F0.0
sg17
F28.0
sg18
F0.0
sg19
F0.0
sg20
F0.0
sg21
F955873.0
sg22
F0.0
sg23
F462384.0
sg24
F0.0
sg25
F1848227.0
sg26
F462384.0
sg27
F0.0
sg28
F493489.0
ssS'MCMAHON JEFFREY'
p46
(dp47
g3
F2355.0
sg4
F0.0
sg5
F137108.0
sg6
I00
sg7
F0.9460721868365181
sg8
F694862.0
sg9
S'jeffrey.mcmahon@enron.com'
p48
sg11
F58.0
sg12
F0.0
sg13
F0.024628450106157114
sg14
F0.0
sg15
F2228.0
sg16
F0.0
sg17
F48.0
sg18
F297353.0
sg19
F0.0
sg20
F2600000.0
sg21
F1662855.0
sg22
F26.0
sg23
F558801.0
sg24
F370448.0
sg25
F4099771.0
sg26
F558801.0
sg27
F0.5416666666666666
sg28
F1104054.0
ssS'HORTON STANLEY C'
p49
(dp50
g3
F2350.0
sg4
F3131860.0
sg5
F0.0
sg6
I00
sg7
F0.4570212765957447
sg8
F0.0
sg9
S'stanley.horton@enron.com'
p51
sg11
F44.0
sg12
F0.0
sg13
F0.01872340425531915
sg14
F0.0
sg15
F1074.0
sg16
F0.0
sg17
F1073.0
sg18
F0.0
sg19
F0.0
sg20
F0.0
sg21
F7256648.0
sg22
F15.0
sg23
F2046079.0
sg24
F0.0
sg25
F3131860.0
sg26
F2046079.0
sg27
F0.013979496738117428
sg28
F5210569.0
ssS'PIPER GREGORY F'
p52
(dp53
g3
F1238.0
sg4
F1130036.0
sg5
F43057.0
sg6
I00
sg7
F0.5993537964458805
sg8
F0.0
sg9
S'greg.piper@enron.com'
p54
sg11
F61.0
sg12
F-33333.0
sg13
F0.049273021001615507
sg14
F-409554.0
sg15
F742.0
sg16
F0.0
sg17
F222.0
sg18
F778.0
sg19
F0.0
sg20
F400000.0
sg21
F880290.0
sg22
F48.0
sg23
F409554.0
sg24
F197091.0
sg25
F1737629.0
sg26
F0.0
sg27
F0.21621621621621623
sg28
F880290.0
ssS'HUMPHREY GENE E'
p55
(dp56
g3
F128.0
sg4
F2964506.0
sg5
F4994.0
sg6
I00
sg7
F0.9296875
sg8
F0.0
sg9
S'gene.humphrey@enron.com'
p57
sg11
F10.0
sg12
F0.0
sg13
F0.078125
sg14
F0.0
sg15
F119.0
sg16
F0.0
sg17
F17.0
sg18
F0.0
sg19
F0.0
sg20
F0.0
sg21
F2282768.0
sg22
F17.0
sg23
F0.0
sg24
F130724.0
sg25
F3100224.0
sg26
F0.0
sg27
F1.0
sg28
F2282768.0
ssS'UMANOFF ADAM S'
p58
(dp59
g3
F111.0
sg4
F0.0
sg5
F53122.0
sg6
I00
sg7
F0.36936936936936937
sg8
F0.0
sg9
S'adam.umanoff@enron.com'
p60
sg11
F12.0
sg12
F0.0
sg13
F0.10810810810810811
sg14
F0.0
sg15
F41.0
sg16
F0.0
sg17
F18.0
sg18
F0.0
sg19
F0.0
sg20
F788750.0
sg21
F0.0
sg22
F0.0
sg23
F0.0
sg24
F288589.0
sg25
F1130461.0
sg26
F0.0
sg27
F0.0
sg28
F0.0
ssS'BLACHMAN JEREMY M'
p61
(dp62
g3
F2475.0
sg4
F0.0
sg5
F84208.0
sg6
I00
sg7
F0.9397979797979797
sg8
F831809.0
sg9
S'jeremy.blachman@enron.com'
p63
sg11
F25.0
sg12
F0.0
sg13
F0.010101010101010102
sg14
F0.0
sg15
F2326.0
sg16
F0.0
sg17
F14.0
sg18
F272.0
sg19
F0.0
sg20
F850000.0
sg21
F954354.0
sg22
F2.0
sg23
F189041.0
sg24
F248546.0
sg25
F2014835.0
sg26
F189041.0
sg27
F0.14285714285714285
sg28
F765313.0
ssS'SUNDE MARTIN'
p64
(dp65
g3
F2647.0
sg4
F0.0
sg5
F0.0
sg6
I00
sg7
F0.9690215338118625
sg8
F476451.0
sg9
S'marty.sunde@enron.com'
p66
sg11
F37.0
sg12
F0.0
sg13
F0.013978088401964487
sg14
F0.0
sg15
F2565.0
sg16
F0.0
sg17
F38.0
sg18
F111122.0
sg19
F0.0
sg20
F700000.0
sg21
F698920.0
sg22
F13.0
sg23
F698920.0
sg24
F257486.0
sg25
F1545059.0
sg26
F698920.0
sg27
F0.34210526315789475
sg28
F0.0
ssS'GIBBS DANA R'
p67
(dp68
g3
F169.0
sg4
F504610.0
sg5
F0.0
sg6
I00
sg7
F0.13609467455621302
sg8
F461912.0
sg9
S'dana.gibbs@enron.com'
p69
sg11
F0.0
sg12
F0.0
sg13
F0.0
sg14
F0.0
sg15
F23.0
sg16
F0.0
sg17
F12.0
sg18
F0.0
sg19
F0.0
sg20
F0.0
sg21
F2218275.0
sg22
F0.0
sg23
F0.0
sg24
F0.0
sg25
F966522.0
sg26
F0.0
sg27
F0.0
sg28
F2218275.0
ssS'LOWRY CHARLES P'
p70
(dp71
g3
F0.0
sg4
F0.0
sg5
F0.0
sg6
I00
sg7
F0.0
sg8
F0.0
sg9
I0
sg11
F0.0
sg12
F0.0
sg13
F0.0
sg14
F-153686.0
sg15
F0.0
sg16
F0.0
sg17
F0.0
sg18
F0.0
sg19
F0.0
sg20
F0.0
sg21
F372205.0
sg22
F0.0
sg23
F153686.0
sg24
F0.0
sg25
F0.0
sg26
F0.0
sg27
F0.0
sg28
F372205.0
ssS'COLWELL WESLEY'
p72
(dp73
g3
F1758.0
sg4
F27610.0
sg5
F16514.0
sg6
I01
sg7
F0.6439135381114903
sg8
F0.0
sg9
S'wes.colwell@enron.com'
p74
sg11
F240.0
sg12
F-144062.0
sg13
F0.13651877133105803
sg14
F0.0
sg15
F1132.0
sg16
F0.0
sg17
F40.0
sg18
F101740.0
sg19
F0.0
sg20
F1200000.0
sg21
F698242.0
sg22
F11.0
sg23
F698242.0
sg24
F288542.0
sg25
F1490344.0
sg26
F698242.0
sg27
F0.275
sg28
F0.0
ssS'MULLER MARK S'
p75
(dp76
g3
F136.0
sg4
F842924.0
sg5
F0.0
sg6
I00
sg7
F0.8382352941176471
sg8
F1725545.0
sg9
S's..muller@enron.com'
p77
sg11
F12.0
sg12
F-719000.0
sg13
F0.08823529411764706
sg14
F0.0
sg15
F114.0
sg16
F0.0
sg17
F16.0
sg18
F947.0
sg19
F0.0
sg20
F1100000.0
sg21
F1416848.0
sg22
F0.0
sg23
F360528.0
sg24
F251654.0
sg25
F3202070.0
sg26
F360528.0
sg27
F0.0
sg28
F1056320.0
ssS'JACKSON CHARLENE R'
p78
(dp79
g3
F258.0
sg4
F0.0
sg5
F10181.0
sg6
I00
sg7
F0.45348837209302323
sg8
F0.0
sg9
S'charlene.jackson@enron.com'
p80
sg11
F25.0
sg12
F0.0
sg13
F0.09689922480620156
sg14
F0.0
sg15
F117.0
sg16
F0.0
sg17
F56.0
sg18
F2435.0
sg19
F0.0
sg20
F250000.0
sg21
F725735.0
sg22
F19.0
sg23
F540672.0
sg24
F288558.0
sg25
F551174.0
sg26
F540672.0
sg27
F0.3392857142857143
sg28
F185063.0
ssS'WESTFAHL RICHARD K'
p81
(dp82
g3
F0.0
sg4
F0.0
sg5
F51870.0
sg6
I00
sg7
F0.0
sg8
F256191.0
sg9
S'dick.westfahl@enron.com'
p83
sg11
F0.0
sg12
F-10800.0
sg13
F0.0
sg14
F0.0
sg15
F0.0
sg16
F0.0
sg17
F0.0
sg18
F401130.0
sg19
F0.0
sg20
F0.0
sg21
F384930.0
sg22
F0.0
sg23
F384930.0
sg24
F63744.0
sg25
F762135.0
sg26
F384930.0
sg27
F0.0
sg28
F0.0
ssS'WALTERS GARETH W'
p84
(dp85
g3
F0.0
sg4
F53625.0
sg5
F33785.0
sg6
I00
sg7
F0.0
sg8
F0.0
sg9
I0
sg11
F0.0
sg12
F0.0
sg13
F0.0
sg14
F0.0
sg15
F0.0
sg16
F0.0
sg17
F0.0
sg18
F0.0
sg19
F0.0
sg20
F0.0
sg21
F1030329.0
sg22
F0.0
sg23
F0.0
sg24
F0.0
sg25
F87410.0
sg26
F0.0
sg27
F0.0
sg28
F1030329.0
ssS'WALLS JR ROBERT H'
p86
(dp87
g3
F671.0
sg4
F0.0
sg5
F50936.0
sg6
I00
sg7
F0.3204172876304024
sg8
F540751.0
sg9
S'rob.walls@enron.com'
p88
sg11
F17.0
sg12
F0.0
sg13
F0.02533532041728763
sg14
F0.0
sg15
F215.0
sg16
F0.0
sg17
F146.0
sg18
F2.0
sg19
F0.0
sg20
F850000.0
sg21
F5898997.0
sg22
F0.0
sg23
F1552453.0
sg24
F357091.0
sg25
F1798780.0
sg26
F1552453.0
sg27
F0.0
sg28
F4346544.0
ssS'KITCHEN LOUISE'
p89
(dp90
g3
F8305.0
sg4
F0.0
sg5
F5774.0
sg6
I00
sg7
F0.441782059000602
sg8
F0.0
sg9
S'louise.kitchen@enron.com'
p91
sg11
F251.0
sg12
F0.0
sg13
F0.030222757375075255
sg14
F0.0
sg15
F3669.0
sg16
F0.0
sg17
F1728.0
sg18
F93925.0
sg19
F0.0
sg20
F3100000.0
sg21
F547143.0
sg22
F194.0
sg23
F466101.0
sg24
F271442.0
sg25
F3471141.0
sg26
F466101.0
sg27
F0.11226851851851852
sg28
F81042.0
ssS'CHAN RONNIE'
p92
(dp93
g3
F0.0
sg4
F0.0
sg5
F0.0
sg6
I00
sg7
F0.0
sg8
F0.0
sg9
I0
sg11
F0.0
sg12
F-98784.0
sg13
F0.0
sg14
F-32460.0
sg15
F0.0
sg16
F0.0
sg17
F0.0
sg18
F0.0
sg19
F98784.0
sg20
F0.0
sg21
F0.0
sg22
F0.0
sg23
F32460.0
sg24
F0.0
sg25
F0.0
sg26
F0.0
sg27
F0.0
sg28
F0.0
ssS'BELFER ROBERT'
p94
(dp95
g3
F0.0
sg4
F-102500.0
sg5
F0.0
sg6
I00
sg7
F0.0
sg8
F0.0
sg9
I0
sg11
F0.0
sg12
F0.0
sg13
F0.0
sg14
F44093.0
sg15
F0.0
sg16
F0.0
sg17
F0.0
sg18
F0.0
sg19
F3285.0
sg20
F0.0
sg21
F-44093.0
sg22
F0.0
sg23
F0.0
sg24
F0.0
sg25
F102500.0
sg26
F44093.0
sg27
F0.0
sg28
F3285.0
ssS'SHANKMAN JEFFREY A'
p96
(dp97
g3
F3221.0
sg4
F0.0
sg5
F178979.0
sg6
I00
sg7
F0.5371002794163303
sg8
F554422.0
sg9
S'jeffrey.shankman@enron.com'
p98
sg11
F94.0
sg12
F0.0
sg13
F0.029183483390251473
sg14
F0.0
sg15
F1730.0
sg16
F0.0
sg17
F2681.0
sg18
F1191.0
sg19
F0.0
sg20
F2000000.0
sg21
F2072035.0
sg22
F83.0
sg23
F630137.0
sg24
F304110.0
sg25
F3038702.0
sg26
F630137.0
sg27
F0.030958597538232
sg28
F1441898.0
ssS'WODRASKA JOHN'
p99
(dp100
g3
F0.0
sg4
F0.0
sg5
F0.0
sg6
I00
sg7
F0.0
sg8
F0.0
sg9
S'john.wodraska@enron.com'
p101
sg11
F0.0
sg12
F0.0
sg13
F0.0
sg14
F0.0
sg15
F0.0
sg16
F0.0
sg17
F0.0
sg18
F189583.0
sg19
F0.0
sg20
F0.0
sg21
F0.0
sg22
F0.0
sg23
F0.0
sg24
F0.0
sg25
F189583.0
sg26
F0.0
sg27
F0.0
sg28
F0.0
ssS'BERGSIEKER RICHARD P'
p102
(dp103
g3
F383.0
sg4
F0.0
sg5
F59175.0
sg6
I00
sg7
F0.608355091383812
sg8
F180250.0
sg9
S'rick.bergsieker@enron.com'
p104
sg11
F4.0
sg12
F-485813.0
sg13
F0.010443864229765013
sg14
F0.0
sg15
F233.0
sg16
F0.0
sg17
F59.0
sg18
F427316.0
sg19
F0.0
sg20
F250000.0
sg21
F659249.0
sg22
F0.0
sg23
F659249.0
sg24
F187922.0
sg25
F618850.0
sg26
F659249.0
sg27
F0.0
sg28
F0.0
ssS'URQUHART JOHN A'
p105
(dp106
g3
F0.0
sg4
F0.0
sg5
F228656.0
sg6
I00
sg7
F0.0
sg8
F0.0
sg9
I0
sg11
F0.0
sg12
F-36666.0
sg13
F0.0
sg14
F0.0
sg15
F0.0
sg16
F0.0
sg17
F0.0
sg18
F0.0
sg19
F36666.0
sg20
F0.0
sg21
F0.0
sg22
F0.0
sg23
F0.0
sg24
F0.0
sg25
F228656.0
sg26
F0.0
sg27
F0.0
sg28
F0.0
ssS'BIBI PHILIPPE A'
p107
(dp108
g3
F1607.0
sg4
F0.0
sg5
F38559.0
sg6
I00
sg7
F0.8313627878033603
sg8
F369721.0
sg9
S'philippe.bibi@enron.com'
p109
sg11
F23.0
sg12
F0.0
sg13
F0.01431238332296204
sg14
F0.0
sg15
F1336.0
sg16
F0.0
sg17
F40.0
sg18
F425688.0
sg19
F0.0
sg20
F1000000.0
sg21
F1843816.0
sg22
F8.0
sg23
F378082.0
sg24
F213625.0
sg25
F2047593.0
sg26
F378082.0
sg27
F0.2
sg28
F1465734.0
ssS'PIRO JIM'
p110
(dp111
g3
F58.0
sg4
F0.0
sg5
F0.0
sg6
I00
sg7
F0.05172413793103448
sg8
F0.0
sg9
S'jim.piro@enron.com'
p112
sg11
F0.0
sg12
F0.0
sg13
F0.0
sg14
F0.0
sg15
F3.0
sg16
F0.0
sg17
F16.0
sg18
F0.0
sg19
F0.0
sg20
F0.0
sg21
F47304.0
sg22
F1.0
sg23
F47304.0
sg24
F0.0
sg25
F0.0
sg26
F47304.0
sg27
F0.0625
sg28
F0.0
ssS'RIEKER PAULA H'
p113
(dp114
g3
F1328.0
sg4
F214678.0
sg5
F33271.0
sg6
I01
sg7
F0.947289156626506
sg8
F0.0
sg9
S'paula.rieker@enron.com'
p115
sg11
F35.0
sg12
F-100000.0
sg13
F0.02635542168674699
sg14
F0.0
sg15
F1258.0
sg16
F0.0
sg17
F82.0
sg18
F1950.0
sg19
F0.0
sg20
F700000.0
sg21
F1918887.0
sg22
F48.0
sg23
F283649.0
sg24
F249201.0
sg25
F1099100.0
sg26
F283649.0
sg27
F0.5853658536585366
sg28
F1635238.0
ssS'WHALEY DAVID A'
p116
(dp117
g3
F0.0
sg4
F0.0
sg5
F0.0
sg6
I00
sg7
F0.0
sg8
F0.0
sg9
I0
sg11
F0.0
sg12
F0.0
sg13
F0.0
sg14
F0.0
sg15
F0.0
sg16
F0.0
sg17
F0.0
sg18
F0.0
sg19
F0.0
sg20
F0.0
sg21
F98718.0
sg22
F0.0
sg23
F0.0
sg24
F0.0
sg25
F0.0
sg26
F0.0
sg27
F0.0
sg28
F98718.0
ssS'BECK SALLY W'
p118
(dp119
g3
F7315.0
sg4
F0.0
sg5
F37172.0
sg6
I00
sg7
F0.36076555023923446
sg8
F0.0
sg9
S'sally.beck@enron.com'
p120
sg11
F144.0
sg12
F0.0
sg13
F0.01968557758031442
sg14
F0.0
sg15
F2639.0
sg16
F0.0
sg17
F4343.0
sg18
F566.0
sg19
F0.0
sg20
F700000.0
sg21
F126027.0
sg22
F386.0
sg23
F126027.0
sg24
F231330.0
sg25
F969068.0
sg26
F126027.0
sg27
F0.08887865530739121
sg28
F0.0
ssS'HAUG DAVID L'
p121
(dp122
g3
F573.0
sg4
F0.0
sg5
F475.0
sg6
I00
sg7
F0.8219895287958116
sg8
F0.0
sg9
S'david.haug@enron.com'
p123
sg11
F4.0
sg12
F0.0
sg13
F0.006980802792321117
sg14
F0.0
sg15
F471.0
sg16
F0.0
sg17
F19.0
sg18
F0.0
sg19
F0.0
sg20
F0.0
sg21
F2217299.0
sg22
F7.0
sg23
F2217299.0
sg24
F0.0
sg25
F475.0
sg26
F2217299.0
sg27
F0.3684210526315789
sg28
F0.0
ssS'ECHOLS JOHN B'
p124
(dp125
g3
F0.0
sg4
F0.0
sg5
F21530.0
sg6
I00
sg7
F0.0
sg8
F2234774.0
sg9
S'john.echols@enron.com'
p126
sg11
F0.0
sg12
F0.0
sg13
F0.0
sg14
F0.0
sg15
F0.0
sg16
F0.0
sg17
F0.0
sg18
F53775.0
sg19
F0.0
sg20
F200000.0
sg21
F1008941.0
sg22
F0.0
sg23
F407503.0
sg24
F182245.0
sg25
F2692324.0
sg26
F407503.0
sg27
F0.0
sg28
F601438.0
ssS'MENDELSOHN JOHN'
p127
(dp128
g3
F0.0
sg4
F0.0
sg5
F148.0
sg6
I00
sg7
F0.0
sg8
F0.0
sg9
I0
sg11
F0.0
sg12
F-103750.0
sg13
F0.0
sg14
F0.0
sg15
F0.0
sg16
F0.0
sg17
F0.0
sg18
F0.0
sg19
F103750.0
sg20
F0.0
sg21
F0.0
sg22
F0.0
sg23
F0.0
sg24
F0.0
sg25
F148.0
sg26
F0.0
sg27
F0.0
sg28
F0.0
ssS'HICKERSON GARY J'
p129
(dp130
g3
F1320.0
sg4
F0.0
sg5
F98849.0
sg6
I00
sg7
F0.6818181818181818
sg8
F69223.0
sg9
S'gary.hickerson@enron.com'
p131
sg11
F40.0
sg12
F0.0
sg13
F0.030303030303030304
sg14
F0.0
sg15
F900.0
sg16
F0.0
sg17
F27.0
sg18
F1936.0
sg19
F0.0
sg20
F1700000.0
sg21
F441096.0
sg22
F1.0
sg23
F441096.0
sg24
F211788.0
sg25
F2081796.0
sg26
F441096.0
sg27
F0.037037037037037035
sg28
F0.0
ssS'CLINE KENNETH W'
p132
(dp133
g3
F0.0
sg4
F0.0
sg5
F0.0
sg6
I00
sg7
F0.0
sg8
F0.0
sg9
I0
sg11
F0.0
sg12
F0.0
sg13
F0.0
sg14
F-472568.0
sg15
F0.0
sg16
F0.0
sg17
F0.0
sg18
F0.0
sg19
F0.0
sg20
F0.0
sg21
F189518.0
sg22
F0.0
sg23
F662086.0
sg24
F0.0
sg25
F0.0
sg26
F189518.0
sg27
F0.0
sg28
F0.0
ssS'LEWIS RICHARD'
p134
(dp135
g3
F952.0
sg4
F0.0
sg5
F0.0
sg6
I00
sg7
F0.7762605042016807
sg8
F0.0
sg9
S'richard.lewis@enron.com'
p136
sg11
F10.0
sg12
F0.0
sg13
F0.01050420168067227
sg14
F0.0
sg15
F739.0
sg16
F0.0
sg17
F26.0
sg18
F0.0
sg19
F0.0
sg20
F0.0
sg21
F850477.0
sg22
F0.0
sg23
F0.0
sg24
F0.0
sg25
F0.0
sg26
F0.0
sg27
F0.0
sg28
F850477.0
ssS'HAYES ROBERT E'
p137
(dp138
g3
F504.0
sg4
F7961.0
sg5
F0.0
sg6
I00
sg7
F0.0992063492063492
sg8
F0.0
sg9
S'robert.hayes@enron.com'
p139
sg11
F16.0
sg12
F0.0
sg13
F0.031746031746031744
sg14
F0.0
sg15
F50.0
sg16
F0.0
sg17
F12.0
sg18
F0.0
sg19
F0.0
sg20
F0.0
sg21
F151418.0
sg22
F0.0
sg23
F151418.0
sg24
F0.0
sg25
F7961.0
sg26
F151418.0
sg27
F0.0
sg28
F0.0
ssS'KOPPER MICHAEL J'
p140
(dp141
g3
F0.0
sg4
F0.0
sg5
F118134.0
sg6
I01
sg7
F0.0
sg8
F602671.0
sg9
S'michael.kopper@enron.com'
p142
sg11
F0.0
sg12
F0.0
sg13
F0.0
sg14
F0.0
sg15
F0.0
sg16
F0.0
sg17
F0.0
sg18
F907502.0
sg19
F0.0
sg20
F800000.0
sg21
F985032.0
sg22
F0.0
sg23
F985032.0
sg24
F224305.0
sg25
F2652612.0
sg26
F985032.0
sg27
F0.0
sg28
F0.0
ssS'LEFF DANIEL P'
p143
(dp144
g3
F2822.0
sg4
F0.0
sg5
F0.0
sg6
I00
sg7
F0.9468462083628633
sg8
F1387399.0
sg9
S'dan.leff@enron.com'
p145
sg11
F67.0
sg12
F0.0
sg13
F0.02374202693125443
sg14
F0.0
sg15
F2672.0
sg16
F0.0
sg17
F63.0
sg18
F3083.0
sg19
F0.0
sg20
F1000000.0
sg21
F360528.0
sg22
F14.0
sg23
F360528.0
sg24
F273746.0
sg25
F2664228.0
sg26
F360528.0
sg27
F0.2222222222222222
sg28
F0.0
ssS'LAVORATO JOHN J'
p146
(dp147
g3
F7259.0
sg4
F0.0
sg5
F49537.0
sg6
I00
sg7
F0.5458052073288332
sg8
F2035380.0
sg9
S'john.lavorato@enron.com'
p148
sg11
F528.0
sg12
F0.0
sg13
F0.07273729163796666
sg14
F0.0
sg15
F3962.0
sg16
F0.0
sg17
F2585.0
sg18
F1552.0
sg19
F0.0
sg20
F8000000.0
sg21
F5167144.0
sg22
F411.0
sg23
F1008149.0
sg24
F339288.0
sg25
F10425757.0
sg26
F1008149.0
sg27
F0.15899419729206962
sg28
F4158995.0
ssS'BERBERIAN DAVID'
p149
(dp150
g3
F0.0
sg4
F0.0
sg5
F11892.0
sg6
I00
sg7
F0.0
sg8
F0.0
sg9
S'david.berberian@enron.com'
p151
sg11
F0.0
sg12
F0.0
sg13
F0.0
sg14
F0.0
sg15
F0.0
sg16
F0.0
sg17
F0.0
sg18
F0.0
sg19
F0.0
sg20
F0.0
sg21
F2493616.0
sg22
F0.0
sg23
F869220.0
sg24
F216582.0
sg25
F228474.0
sg26
F869220.0
sg27
F0.0
sg28
F1624396.0
ssS'DETMERING TIMOTHY J'
p152
(dp153
g3
F0.0
sg4
F875307.0
sg5
F52255.0
sg6
I00
sg7
F0.0
sg8
F415657.0
sg9
S'timothy.detmering@enron.com'
p154
sg11
F0.0
sg12
F-775241.0
sg13
F0.0
sg14
F-315068.0
sg15
F0.0
sg16
F0.0
sg17
F0.0
sg18
F1105.0
sg19
F0.0
sg20
F425000.0
sg21
F2027865.0
sg22
F0.0
sg23
F315068.0
sg24
F210500.0
sg25
F1204583.0
sg26
F0.0
sg27
F0.0
sg28
F2027865.0
ssS'WAKEHAM JOHN'
p155
(dp156
g3
F0.0
sg4
F0.0
sg5
F103773.0
sg6
I00
sg7
F0.0
sg8
F0.0
sg9
I0
sg11
F0.0
sg12
F0.0
sg13
F0.0
sg14
F0.0
sg15
F0.0
sg16
F0.0
sg17
F0.0
sg18
F0.0
sg19
F109298.0
sg20
F0.0
sg21
F0.0
sg22
F0.0
sg23
F0.0
sg24
F0.0
sg25
F213071.0
sg26
F0.0
sg27
F0.0
sg28
F0.0
ssS'POWERS WILLIAM'
p157
(dp158
g3
F653.0
sg4
F0.0
sg5
F0.0
sg6
I00
sg7
F0.018376722817764167
sg8
F0.0
sg9
S'ken.powers@enron.com'
p159
sg11
F0.0
sg12
F-17500.0
sg13
F0.0
sg14
F0.0
sg15
F12.0
sg16
F0.0
sg17
F26.0
sg18
F0.0
sg19
F17500.0
sg20
F0.0
sg21
F0.0
sg22
F0.0
sg23
F0.0
sg24
F0.0
sg25
F0.0
sg26
F0.0
sg27
F0.0
sg28
F0.0
ssS'GOLD JOSEPH'
p160
(dp161
g3
F0.0
sg4
F0.0
sg5
F0.0
sg6
I00
sg7
F0.0
sg8
F304805.0
sg9
S'joe.gold@enron.com'
p162
sg11
F0.0
sg12
F0.0
sg13
F0.0
sg14
F0.0
sg15
F0.0
sg16
F0.0
sg17
F0.0
sg18
F819288.0
sg19
F0.0
sg20
F750000.0
sg21
F877611.0
sg22
F0.0
sg23
F441096.0
sg24
F272880.0
sg25
F2146973.0
sg26
F441096.0
sg27
F0.0
sg28
F436515.0
ssS'BANNANTINE JAMES M'
p163
(dp164
g3
F566.0
sg4
F0.0
sg5
F56301.0
sg6
I00
sg7
F0.8215547703180212
sg8
F0.0
sg9
S'james.bannantine@enron.com'
p165
sg11
F39.0
sg12
F-5104.0
sg13
F0.06890459363957598
sg14
F-560222.0
sg15
F465.0
sg16
F0.0
sg17
F29.0
sg18
F864523.0
sg19
F0.0
sg20
F0.0
sg21
F5243487.0
sg22
F0.0
sg23
F1757552.0
sg24
F477.0
sg25
F916197.0
sg26
F1197330.0
sg27
F0.0
sg28
F4046157.0
ssS'DUNCAN JOHN H'
p166
(dp167
g3
F0.0
sg4
F0.0
sg5
F0.0
sg6
I00
sg7
F0.0
sg8
F0.0
sg9
I0
sg11
F0.0
sg12
F-25000.0
sg13
F0.0
sg14
F0.0
sg15
F0.0
sg16
F0.0
sg17
F0.0
sg18
F0.0
sg19
F102492.0
sg20
F0.0
sg21
F371750.0
sg22
F0.0
sg23
F0.0
sg24
F0.0
sg25
F77492.0
sg26
F0.0
sg27
F0.0
sg28
F371750.0
ssS'SHAPIRO RICHARD S'
p168
(dp169
g3
F15149.0
sg4
F0.0
sg5
F137767.0
sg6
I00
sg7
F0.29883160604660375
sg8
F0.0
sg9
S'richard.shapiro@enron.com'
p170
sg11
F74.0
sg12
F0.0
sg13
F0.0048848108786058485
sg14
F0.0
sg15
F4527.0
sg16
F0.0
sg17
F1215.0
sg18
F705.0
sg19
F0.0
sg20
F650000.0
sg21
F987001.0
sg22
F65.0
sg23
F379164.0
sg24
F269076.0
sg25
F1057548.0
sg26
F379164.0
sg27
F0.053497942386831275
sg28
F607837.0
ssS'SHERRIFF JOHN R'
p171
(dp172
g3
F3187.0
sg4
F0.0
sg5
F0.0
sg6
I00
sg7
F0.6598682146219015
sg8
F554422.0
sg9
S'john.sherriff@enron.com'
p173
sg11
F28.0
sg12
F0.0
sg13
F0.008785691873235017
sg14
F0.0
sg15
F2103.0
sg16
F0.0
sg17
F92.0
sg18
F1852186.0
sg19
F0.0
sg20
F1500000.0
sg21
F3128982.0
sg22
F23.0
sg23
F1293424.0
sg24
F428780.0
sg25
F4335388.0
sg26
F1293424.0
sg27
F0.25
sg28
F1835558.0
ssS'SHELBY REX'
p174
(dp175
g3
F225.0
sg4
F0.0
sg5
F22884.0
sg6
I01
sg7
F0.40444444444444444
sg8
F0.0
sg9
S'rex.shelby@enron.com'
p176
sg11
F13.0
sg12
F-4167.0
sg13
F0.057777777777777775
sg14
F0.0
sg15
F91.0
sg16
F0.0
sg17
F39.0
sg18
F1573324.0
sg19
F0.0
sg20
F200000.0
sg21
F2493616.0
sg22
F14.0
sg23
F869220.0
sg24
F211844.0
sg25
F2003885.0
sg26
F869220.0
sg27
F0.358974358974359
sg28
F1624396.0
ssS'LEMAISTRE CHARLES'
p177
(dp178
g3
F0.0
sg4
F0.0
sg5
F0.0
sg6
I00
sg7
F0.0
sg8
F0.0
sg9
I0
sg11
F0.0
sg12
F-25000.0
sg13
F0.0
sg14
F0.0
sg15
F0.0
sg16
F0.0
sg17
F0.0
sg18
F0.0
sg19
F112492.0
sg20
F0.0
sg21
F412878.0
sg22
F0.0
sg23
F0.0
sg24
F0.0
sg25
F87492.0
sg26
F0.0
sg27
F0.0
sg28
F412878.0
ssS'DEFFNER JOSEPH M'
p179
(dp180
g3
F714.0
sg4
F0.0
sg5
F41626.0
sg6
I00
sg7
F0.773109243697479
sg8
F335349.0
sg9
S'joseph.deffner@enron.com'
p181
sg11
F115.0
sg12
F0.0
sg13
F0.16106442577030813
sg14
F0.0
sg15
F552.0
sg16
F0.0
sg17
F74.0
sg18
F25553.0
sg19
F0.0
sg20
F600000.0
sg21
F159211.0
sg22
F4.0
sg23
F141833.0
sg24
F206121.0
sg25
F1208649.0
sg26
F141833.0
sg27
F0.05405405405405406
sg28
F17378.0
ssS'KISHKILL JOSEPH G'
p182
(dp183
g3
F0.0
sg4
F0.0
sg5
F116335.0
sg6
I00
sg7
F0.0
sg8
F0.0
sg9
S'joe.kishkill@enron.com'
p184
sg11
F0.0
sg12
F-51042.0
sg13
F0.0
sg14
F0.0
sg15
F0.0
sg16
F0.0
sg17
F0.0
sg18
F465357.0
sg19
F0.0
sg20
F0.0
sg21
F1034346.0
sg22
F0.0
sg23
F1034346.0
sg24
F174246.0
sg25
F704896.0
sg26
F1034346.0
sg27
F0.0
sg28
F0.0
ssS'WHALLEY LAWRENCE G'
p185
(dp186
g3
F6019.0
sg4
F0.0
sg5
F57838.0
sg6
I00
sg7
F0.6512709752450573
sg8
F808346.0
sg9
S'greg.whalley@enron.com'
p187
sg11
F186.0
sg12
F0.0
sg13
F0.03090214321315833
sg14
F0.0
sg15
F3920.0
sg16
F0.0
sg17
F556.0
sg18
F301026.0
sg19
F0.0
sg20
F3000000.0
sg21
F6079137.0
sg22
F24.0
sg23
F2796177.0
sg24
F510364.0
sg25
F4677574.0
sg26
F2796177.0
sg27
F0.04316546762589928
sg28
F3282960.0
ssS'MCCARTY DANNY J'
p188
(dp189
g3
F1433.0
sg4
F0.0
sg5
F0.0
sg6
I00
sg7
F0.35450104675505933
sg8
F0.0
sg9
S'danny.mccarty@enron.com'
p190
sg11
F25.0
sg12
F0.0
sg13
F0.017445917655268667
sg14
F0.0
sg15
F508.0
sg16
F0.0
sg17
F215.0
sg18
F0.0
sg19
F0.0
sg20
F0.0
sg21
F758931.0
sg22
F2.0
sg23
F94556.0
sg24
F0.0
sg25
F0.0
sg26
F94556.0
sg27
F0.009302325581395349
sg28
F664375.0
ssS'MCCONNELL MICHAEL S'
p191
(dp192
g3
F3329.0
sg4
F0.0
sg5
F81364.0
sg6
I00
sg7
F0.657554821267648
sg8
F554422.0
sg9
S'mike.mcconnell@enron.com'
p193
sg11
F92.0
sg12
F0.0
sg13
F0.02763592670471613
sg14
F0.0
sg15
F2189.0
sg16
F0.0
sg17
F2742.0
sg18
F540.0
sg19
F0.0
sg20
F1100000.0
sg21
F3101279.0
sg22
F194.0
sg23
F1478269.0
sg24
F365038.0
sg25
F2101364.0
sg26
F1478269.0
sg27
F0.07075127644055434
sg28
F1623010.0
ssS'DELAINEY DAVID W'
p194
(dp195
g3
F3093.0
sg4
F0.0
sg5
F86174.0
sg6
I01
sg7
F0.6779825412221144
sg8
F1294981.0
sg9
S'david.delainey@enron.com'
p196
sg11
F66.0
sg12
F0.0
sg13
F0.02133850630455868
sg14
F0.0
sg15
F2097.0
sg16
F0.0
sg17
F3069.0
sg18
F1661.0
sg19
F0.0
sg20
F3000000.0
sg21
F3614261.0
sg22
F609.0
sg23
F1323148.0
sg24
F365163.0
sg25
F4747979.0
sg26
F1323148.0
sg27
F0.198435972629521
sg28
F2291113.0
ssS'SULLIVAN-SHAKLOVITZ COLLEEN'
p197
(dp198
g3
F0.0
sg4
F181993.0
sg5
F0.0
sg6
I00
sg7
F0.0
sg8
F554422.0
sg9
I0
sg11
F0.0
sg12
F0.0
sg13
F0.0
sg14
F0.0
sg15
F0.0
sg16
F0.0
sg17
F0.0
sg18
F162.0
sg19
F0.0
sg20
F100000.0
sg21
F1362375.0
sg22
F0.0
sg23
F0.0
sg24
F162779.0
sg25
F999356.0
sg26
F0.0
sg27
F0.0
sg28
F1362375.0
ssS'WROBEL BRUCE'
p199
(dp200
g3
F0.0
sg4
F0.0
sg5
F0.0
sg6
I00
sg7
F0.0
sg8
F0.0
sg9
I0
sg11
F0.0
sg12
F0.0
sg13
F0.0
sg14
F0.0
sg15
F0.0
sg16
F0.0
sg17
F0.0
sg18
F0.0
sg19
F0.0
sg20
F0.0
sg21
F139130.0
sg22
F0.0
sg23
F0.0
sg24
F0.0
sg25
F0.0
sg26
F0.0
sg27
F0.0
sg28
F139130.0
ssS'LINDHOLM TOD A'
p201
(dp202
g3
F0.0
sg4
F204075.0
sg5
F57727.0
sg6
I00
sg7
F0.0
sg8
F175000.0
sg9
S'tod.lindholm@enron.com'
p203
sg11
F0.0
sg12
F0.0
sg13
F0.0
sg14
F0.0
sg15
F0.0
sg16
F0.0
sg17
F0.0
sg18
F2630.0
sg19
F0.0
sg20
F200000.0
sg21
F3064208.0
sg22
F0.0
sg23
F514847.0
sg24
F236457.0
sg25
F875889.0
sg26
F514847.0
sg27
F0.0
sg28
F2549361.0
ssS'MEYER JEROME J'
p204
(dp205
g3
F0.0
sg4
F0.0
sg5
F2151.0
sg6
I00
sg7
F0.0
sg8
F0.0
sg9
I0
sg11
F0.0
sg12
F-38346.0
sg13
F0.0
sg14
F0.0
sg15
F0.0
sg16
F0.0
sg17
F0.0
sg18
F0.0
sg19
F38346.0
sg20
F0.0
sg21
F0.0
sg22
F0.0
sg23
F0.0
sg24
F0.0
sg25
F2151.0
sg26
F0.0
sg27
F0.0
sg28
F0.0
ssS'LAY KENNETH L'
p206
(dp207
g3
F4273.0
sg4
F202911.0
sg5
F99832.0
sg6
I01
sg7
F0.5642405803884858
sg8
F3600000.0
sg9
S'kenneth.lay@enron.com'
p208
sg11
F123.0
sg12
F-300000.0
sg13
F0.028785396676807865
sg14
F0.0
sg15
F2411.0
sg16
F81525000.0
sg17
F36.0
sg18
F10359729.0
sg19
F0.0
sg20
F7000000.0
sg21
F49110078.0
sg22
F16.0
sg23
F14761694.0
sg24
F1072321.0
sg25
F103559793.0
sg26
F14761694.0
sg27
F0.4444444444444444
sg28
F34348384.0
ssS'BUTTS ROBERT H'
p209
(dp210
g3
F0.0
sg4
F0.0
sg5
F9410.0
sg6
I00
sg7
F0.0
sg8
F175000.0
sg9
S'bob.butts@enron.com'
p211
sg11
F0.0
sg12
F-75000.0
sg13
F0.0
sg14
F0.0
sg15
F0.0
sg16
F0.0
sg17
F0.0
sg18
F150656.0
sg19
F0.0
sg20
F750000.0
sg21
F417619.0
sg22
F0.0
sg23
F417619.0
sg24
F261516.0
sg25
F1271582.0
sg26
F417619.0
sg27
F0.0
sg28
F0.0
ssS'OLSON CINDY K'
p212
(dp213
g3
F1184.0
sg4
F77716.0
sg5
F63791.0
sg6
I00
sg7
F0.722972972972973
sg8
F100000.0
sg9
S'cindy.olson@enron.com'
p214
sg11
F20.0
sg12
F0.0
sg13
F0.016891891891891893
sg14
F0.0
sg15
F856.0
sg16
F0.0
sg17
F52.0
sg18
F972.0
sg19
F0.0
sg20
F750000.0
sg21
F2606763.0
sg22
F15.0
sg23
F969729.0
sg24
F329078.0
sg25
F1321557.0
sg26
F969729.0
sg27
F0.28846153846153844
sg28
F1637034.0
ssS'MCDONALD REBECCA'
p215
(dp216
g3
F894.0
sg4
F0.0
sg5
F0.0
sg6
I00
sg7
F0.8053691275167785
sg8
F0.0
sg9
S'rebecca.mcdonald@enron.com'
p217
sg11
F54.0
sg12
F0.0
sg13
F0.06040268456375839
sg14
F0.0
sg15
F720.0
sg16
F0.0
sg17
F13.0
sg18
F0.0
sg19
F0.0
sg20
F0.0
sg21
F1691366.0
sg22
F1.0
sg23
F934065.0
sg24
F0.0
sg25
F0.0
sg26
F934065.0
sg27
F0.07692307692307693
sg28
F757301.0
ssS'CUMBERLAND MICHAEL S'
p218
(dp219
g3
F0.0
sg4
F0.0
sg5
F22344.0
sg6
I00
sg7
F0.0
sg8
F275000.0
sg9
I0
sg11
F0.0
sg12
F0.0
sg13
F0.0
sg14
F0.0
sg15
F0.0
sg16
F0.0
sg17
F0.0
sg18
F713.0
sg19
F0.0
sg20
F325000.0
sg21
F207940.0
sg22
F0.0
sg23
F207940.0
sg24
F184899.0
sg25
F807956.0
sg26
F207940.0
sg27
F0.0
sg28
F0.0
ssS'GAHN ROBERT S'
p220
(dp221
g3
F0.0
sg4
F73122.0
sg5
F50080.0
sg6
I00
sg7
F0.0
sg8
F0.0
sg9
I0
sg11
F0.0
sg12
F-1042.0
sg13
F0.0
sg14
F0.0
sg15
F0.0
sg16
F0.0
sg17
F0.0
sg18
F76547.0
sg19
F0.0
sg20
F509870.0
sg21
F318607.0
sg22
F0.0
sg23
F235370.0
sg24
F192008.0
sg25
F900585.0
sg26
F235370.0
sg27
F0.0
sg28
F83237.0
ssS'MCCLELLAN GEORGE'
p222
(dp223
g3
F1744.0
sg4
F0.0
sg5
F228763.0
sg6
I00
sg7
F0.8423165137614679
sg8
F0.0
sg9
S'george.mcclellan@enron.com'
p224
sg11
F52.0
sg12
F-125000.0
sg13
F0.02981651376146789
sg14
F0.0
sg15
F1469.0
sg16
F0.0
sg17
F49.0
sg18
F51587.0
sg19
F0.0
sg20
F900000.0
sg21
F947861.0
sg22
F0.0
sg23
F441096.0
sg24
F263413.0
sg25
F1318763.0
sg26
F441096.0
sg27
F0.0
sg28
F506765.0
ssS'HERMANN ROBERT J'
p225
(dp226
g3
F0.0
sg4
F0.0
sg5
F48357.0
sg6
I00
sg7
F0.0
sg8
F150000.0
sg9
S'robert.hermann@enron.com'
p227
sg11
F0.0
sg12
F-280000.0
sg13
F0.0
sg14
F0.0
sg15
F0.0
sg16
F0.0
sg17
F0.0
sg18
F416441.0
sg19
F0.0
sg20
F700000.0
sg21
F668132.0
sg22
F0.0
sg23
F480632.0
sg24
F262663.0
sg25
F1297461.0
sg26
F480632.0
sg27
F0.0
sg28
F187500.0
ssS'SCRIMSHAW MATTHEW'
p228
(dp229
g3
F0.0
sg4
F0.0
sg5
F0.0
sg6
I00
sg7
F0.0
sg8
F0.0
sg9
S'matthew.scrimshaw@enron.com'
p230
sg11
F0.0
sg12
F0.0
sg13
F0.0
sg14
F0.0
sg15
F0.0
sg16
F0.0
sg17
F0.0
sg18
F0.0
sg19
F0.0
sg20
F0.0
sg21
F759557.0
sg22
F0.0
sg23
F0.0
sg24
F0.0
sg25
F0.0
sg26
F0.0
sg27
F0.0
sg28
F759557.0
ssS'GATHMANN WILLIAM D'
p231
(dp232
g3
F0.0
sg4
F0.0
sg5
F0.0
sg6
I00
sg7
F0.0
sg8
F0.0
sg9
I0
sg11
F0.0
sg12
F0.0
sg13
F0.0
sg14
F-72419.0
sg15
F0.0
sg16
F0.0
sg17
F0.0
sg18
F0.0
sg19
F0.0
sg20
F0.0
sg21
F1945360.0
sg22
F0.0
sg23
F264013.0
sg24
F0.0
sg25
F0.0
sg26
F191594.0
sg27
F0.0
sg28
F1753766.0
ssS'HAEDICKE MARK E'
p233
(dp234
g3
F4009.0
sg4
F2157527.0
sg5
F76169.0
sg6
I00
sg7
F0.4607133948615615
sg8
F983346.0
sg9
S'mark.haedicke@enron.com'
p235
sg11
F180.0
sg12
F-934484.0
sg13
F0.04489897730107259
sg14
F-329825.0
sg15
F1847.0
sg16
F0.0
sg17
F1941.0
sg18
F52382.0
sg19
F0.0
sg20
F1150000.0
sg21
F803094.0
sg22
F61.0
sg23
F524169.0
sg24
F374125.0
sg25
F3859065.0
sg26
F194344.0
sg27
F0.03142709943328181
sg28
F608750.0
ssS'BOWEN JR RAYMOND M'
p236
(dp237
g3
F1858.0
sg4
F0.0
sg5
F65907.0
sg6
I01
sg7
F0.8573735199138859
sg8
F974293.0
sg9
S'raymond.bowen@enron.com'
p238
sg11
F140.0
sg12
F-833.0
sg13
F0.07534983853606028
sg14
F0.0
sg15
F1593.0
sg16
F0.0
sg17
F27.0
sg18
F1621.0
sg19
F0.0
sg20
F1350000.0
sg21
F252055.0
sg22
F15.0
sg23
F252055.0
sg24
F278601.0
sg25
F2669589.0
sg26
F252055.0
sg27
F0.5555555555555556
sg28
F0.0
ssS'GILLIS JOHN'
p239
(dp240
g3
F0.0
sg4
F0.0
sg5
F0.0
sg6
I00
sg7
F0.0
sg8
F0.0
sg9
I0
sg11
F0.0
sg12
F0.0
sg13
F0.0
sg14
F0.0
sg15
F0.0
sg16
F0.0
sg17
F0.0
sg18
F0.0
sg19
F0.0
sg20
F0.0
sg21
F85641.0
sg22
F0.0
sg23
F75838.0
sg24
F0.0
sg25
F0.0
sg26
F75838.0
sg27
F0.0
sg28
F9803.0
ssS'FITZGERALD JAY L'
p241
(dp242
g3
F936.0
sg4
F0.0
sg5
F23870.0
sg6
I00
sg7
F0.7724358974358975
sg8
F556416.0
sg9
S'jay.fitzgerald@enron.com'
p243
sg11
F1.0
sg12
F0.0
sg13
F0.0010683760683760685
sg14
F0.0
sg15
F723.0
sg16
F0.0
sg17
F16.0
sg18
F285414.0
sg19
F0.0
sg20
F350000.0
sg21
F1621236.0
sg22
F8.0
sg23
F956775.0
sg24
F199157.0
sg25
F1414857.0
sg26
F956775.0
sg27
F0.5
sg28
F664461.0
ssS'MORAN MICHAEL P'
p244
(dp245
g3
F672.0
sg4
F0.0
sg5
F0.0
sg6
I00
sg7
F0.18898809523809523
sg8
F0.0
sg9
S'michael.moran@enron.com'
p246
sg11
F0.0
sg12
F0.0
sg13
F0.0
sg14
F0.0
sg15
F127.0
sg16
F0.0
sg17
F19.0
sg18
F0.0
sg19
F0.0
sg20
F0.0
sg21
F221141.0
sg22
F0.0
sg23
F161602.0
sg24
F0.0
sg25
F0.0
sg26
F161602.0
sg27
F0.0
sg28
F59539.0
ssS'REDMOND BRIAN L'
p247
(dp248
g3
F1671.0
sg4
F0.0
sg5
F14689.0
sg6
I00
sg7
F0.6361460203470976
sg8
F0.0
sg9
S'brian.redmond@enron.com'
p249
sg11
F204.0
sg12
F0.0
sg13
F0.12208258527827648
sg14
F0.0
sg15
F1063.0
sg16
F0.0
sg17
F221.0
sg18
F0.0
sg19
F0.0
sg20
F0.0
sg21
F7890324.0
sg22
F49.0
sg23
F381285.0
sg24
F96840.0
sg25
F111529.0
sg26
F381285.0
sg27
F0.22171945701357465
sg28
F7509039.0
ssS'BAZELIDES PHILIP J'
p250
(dp251
g3
F0.0
sg4
F684694.0
sg5
F0.0
sg6
I00
sg7
F0.0
sg8
F93750.0
sg9
I0
sg11
F0.0
sg12
F0.0
sg13
F0.0
sg14
F0.0
sg15
F0.0
sg16
F0.0
sg17
F0.0
sg18
F874.0
sg19
F0.0
sg20
F0.0
sg21
F1599641.0
sg22
F0.0
sg23
F0.0
sg24
F80818.0
sg25
F860136.0
sg26
F0.0
sg27
F0.0
sg28
F1599641.0
ssS'BELDEN TIMOTHY N'
p252
(dp253
g3
F7991.0
sg4
F2144013.0
sg5
F17355.0
sg6
I01
sg7
F0.6909022650481792
sg8
F0.0
sg9
S'tim.belden@enron.com'
p254
sg11
F228.0
sg12
F-2334434.0
sg13
F0.028532098610937303
sg14
F0.0
sg15
F5521.0
sg16
F0.0
sg17
F484.0
sg18
F210698.0
sg19
F0.0
sg20
F5249999.0
sg21
F1110705.0
sg22
F108.0
sg23
F157569.0
sg24
F213999.0
sg25
F5501630.0
sg26
F157569.0
sg27
F0.2231404958677686
sg28
F953136.0
ssS'DURAN WILLIAM D'
p255
(dp256
g3
F904.0
sg4
F0.0
sg5
F25785.0
sg6
I00
sg7
F0.6626106194690266
sg8
F1105218.0
sg9
S'w.duran@enron.com'
p257
sg11
F106.0
sg12
F0.0
sg13
F0.1172566371681416
sg14
F0.0
sg15
F599.0
sg16
F0.0
sg17
F12.0
sg18
F1568.0
sg19
F0.0
sg20
F750000.0
sg21
F1640910.0
sg22
F3.0
sg23
F189041.0
sg24
F210692.0
sg25
F2093263.0
sg26
F189041.0
sg27
F0.25
sg28
F1451869.0
ssS'THORN TERENCE H'
p258
(dp259
g3
F266.0
sg4
F16586.0
sg5
F46145.0
sg6
I00
sg7
F0.2744360902255639
sg8
F200000.0
sg9
S'terence.thorn@enron.com'
p260
sg11
F0.0
sg12
F0.0
sg13
F0.0
sg14
F0.0
sg15
F73.0
sg16
F0.0
sg17
F41.0
sg18
F426629.0
sg19
F0.0
sg20
F0.0
sg21
F4817796.0
sg22
F0.0
sg23
F365320.0
sg24
F222093.0
sg25
F911453.0
sg26
F365320.0
sg27
F0.0
sg28
F4452476.0
ssS'FASTOW ANDREW S'
p261
(dp262
g3
F0.0
sg4
F0.0
sg5
F55921.0
sg6
I01
sg7
F0.0
sg8
F1736055.0
sg9
S'andrew.fastow@enron.com'
p263
sg11
F0.0
sg12
F-1386055.0
sg13
F0.0
sg14
F0.0
sg15
F0.0
sg16
F0.0
sg17
F0.0
sg18
F277464.0
sg19
F0.0
sg20
F1300000.0
sg21
F1794412.0
sg22
F0.0
sg23
F1794412.0
sg24
F440698.0
sg25
F2424083.0
sg26
F1794412.0
sg27
F0.0
sg28
F0.0
ssS'FOY JOE'
p264
(dp265
g3
F57.0
sg4
F181755.0
sg5
F0.0
sg6
I00
sg7
F0.03508771929824561
sg8
F0.0
sg9
S'tracy.foy@enron.com'
p266
sg11
F0.0
sg12
F0.0
sg13
F0.0
sg14
F0.0
sg15
F2.0
sg16
F0.0
sg17
F13.0
sg18
F0.0
sg19
F0.0
sg20
F0.0
sg21
F343434.0
sg22
F0.0
sg23
F0.0
sg24
F0.0
sg25
F181755.0
sg26
F0.0
sg27
F0.0
sg28
F343434.0
ssS'CALGER CHRISTOPHER F'
p267
(dp268
g3
F2598.0
sg4
F0.0
sg5
F35818.0
sg6
I01
sg7
F0.8421862971516552
sg8
F375304.0
sg9
S'christopher.calger@enron.com'
p269
sg11
F199.0
sg12
F-262500.0
sg13
F0.07659738260200154
sg14
F0.0
sg15
F2188.0
sg16
F0.0
sg17
F144.0
sg18
F486.0
sg19
F0.0
sg20
F1250000.0
sg21
F126027.0
sg22
F25.0
sg23
F126027.0
sg24
F240189.0
sg25
F1639297.0
sg26
F126027.0
sg27
F0.1736111111111111
sg28
F0.0
ssS'RICE KENNETH D'
p270
(dp271
g3
F905.0
sg4
F0.0
sg5
F46950.0
sg6
I01
sg7
F0.9546961325966851
sg8
F1617011.0
sg9
S'ken.rice@enron.com'
p272
sg11
F42.0
sg12
F-3504386.0
sg13
F0.04640883977900553
sg14
F0.0
sg15
F864.0
sg16
F0.0
sg17
F18.0
sg18
F174839.0
sg19
F0.0
sg20
F1750000.0
sg21
F22542539.0
sg22
F4.0
sg23
F2748364.0
sg24
F420636.0
sg25
F505050.0
sg26
F2748364.0
sg27
F0.2222222222222222
sg28
F19794175.0
ssS'KAMINSKI WINCENTY J'
p273
(dp274
g3
F4607.0
sg4
F0.0
sg5
F83585.0
sg6
I00
sg7
F0.1265465595832429
sg8
F323466.0
sg9
S'vince.kaminski@enron.com'
p275
sg11
F41.0
sg12
F0.0
sg13
F0.008899500759713479
sg14
F0.0
sg15
F583.0
sg16
F0.0
sg17
F14368.0
sg18
F4669.0
sg19
F0.0
sg20
F400000.0
sg21
F976037.0
sg22
F171.0
sg23
F126027.0
sg24
F275101.0
sg25
F1086821.0
sg26
F126027.0
sg27
F0.011901447661469933
sg28
F850010.0
ssS'LOCKHART EUGENE E'
p276
(dp277
g3
F0.0
sg4
F0.0
sg5
F0.0
sg6
I00
sg7
F0.0
sg8
F0.0
sg9
I0
sg11
F0.0
sg12
F0.0
sg13
F0.0
sg14
F0.0
sg15
F0.0
sg16
F0.0
sg17
F0.0
sg18
F0.0
sg19
F0.0
sg20
F0.0
sg21
F0.0
sg22
F0.0
sg23
F0.0
sg24
F0.0
sg25
F0.0
sg26
F0.0
sg27
F0.0
sg28
F0.0
ssS'COX DAVID'
p278
(dp279
g3
F102.0
sg4
F0.0
sg5
F27861.0
sg6
I00
sg7
F0.696078431372549
sg8
F0.0
sg9
S'chip.cox@enron.com'
p280
sg11
F0.0
sg12
F-41250.0
sg13
F0.0
sg14
F0.0
sg15
F71.0
sg16
F0.0
sg17
F33.0
sg18
F494.0
sg19
F0.0
sg20
F800000.0
sg21
F495633.0
sg22
F4.0
sg23
F378082.0
sg24
F314288.0
sg25
F1101393.0
sg26
F378082.0
sg27
F0.12121212121212122
sg28
F117551.0
ssS'OVERDYKE JR JERE C'
p281
(dp282
g3
F0.0
sg4
F0.0
sg5
F18834.0
sg6
I00
sg7
F0.0
sg8
F135836.0
sg9
S'jere.overdyke@enron.com'
p283
sg11
F0.0
sg12
F0.0
sg13
F0.0
sg14
F0.0
sg15
F0.0
sg16
F0.0
sg17
F0.0
sg18
F176.0
sg19
F0.0
sg20
F0.0
sg21
F7307594.0
sg22
F0.0
sg23
F2041016.0
sg24
F94941.0
sg25
F249787.0
sg26
F2041016.0
sg27
F0.0
sg28
F5266578.0
ssS'PEREIRA PAULO V. FERRAZ'
p284
(dp285
g3
F0.0
sg4
F0.0
sg5
F27942.0
sg6
I00
sg7
F0.0
sg8
F0.0
sg9
I0
sg11
F0.0
sg12
F-101250.0
sg13
F0.0
sg14
F0.0
sg15
F0.0
sg16
F0.0
sg17
F0.0
sg18
F0.0
sg19
F101250.0
sg20
F0.0
sg21
F0.0
sg22
F0.0
sg23
F0.0
sg24
F0.0
sg25
F27942.0
sg26
F0.0
sg27
F0.0
sg28
F0.0
ssS'STABLER FRANK'
p286
(dp287
g3
F0.0
sg4
F0.0
sg5
F16514.0
sg6
I00
sg7
F0.0
sg8
F0.0
sg9
S'frank.stabler@enron.com'
p288
sg11
F0.0
sg12
F0.0
sg13
F0.0
sg14
F0.0
sg15
F0.0
sg16
F0.0
sg17
F0.0
sg18
F356071.0
sg19
F0.0
sg20
F500000.0
sg21
F511734.0
sg22
F0.0
sg23
F511734.0
sg24
F239502.0
sg25
F1112087.0
sg26
F511734.0
sg27
F0.0
sg28
F0.0
ssS'SKILLING JEFFREY K'
p289
(dp290
g3
F3627.0
sg4
F0.0
sg5
F29336.0
sg6
I01
sg7
F0.5629997242900469
sg8
F1920000.0
sg9
S'jeff.skilling@enron.com'
p291
sg11
F88.0
sg12
F0.0
sg13
F0.0242624758753791
sg14
F0.0
sg15
F2042.0
sg16
F0.0
sg17
F108.0
sg18
F22122.0
sg19
F0.0
sg20
F5600000.0
sg21
F26093672.0
sg22
F30.0
sg23
F6843672.0
sg24
F1111258.0
sg25
F8682716.0
sg26
F6843672.0
sg27
F0.2777777777777778
sg28
F19250000.0
ssS'BLAKE JR. NORMAN P'
p292
(dp293
g3
F0.0
sg4
F0.0
sg5
F1279.0
sg6
I00
sg7
F0.0
sg8
F0.0
sg9
I0
sg11
F0.0
sg12
F-113784.0
sg13
F0.0
sg14
F0.0
sg15
F0.0
sg16
F0.0
sg17
F0.0
sg18
F0.0
sg19
F113784.0
sg20
F0.0
sg21
F0.0
sg22
F0.0
sg23
F0.0
sg24
F0.0
sg25
F1279.0
sg26
F0.0
sg27
F0.0
sg28
F0.0
ssS'SHERRICK JEFFREY B'
p294
(dp295
g3
F613.0
sg4
F0.0
sg5
F0.0
sg6
I00
sg7
F0.9510603588907015
sg8
F0.0
sg9
S'jeffrey.sherrick@enron.com'
p296
sg11
F39.0
sg12
F0.0
sg13
F0.0636215334420881
sg14
F0.0
sg15
F583.0
sg16
F0.0
sg17
F25.0
sg18
F0.0
sg19
F0.0
sg20
F0.0
sg21
F1832468.0
sg22
F18.0
sg23
F405999.0
sg24
F0.0
sg25
F0.0
sg26
F405999.0
sg27
F0.72
sg28
F1426469.0
ssS'PRENTICE JAMES'
p297
(dp298
g3
F0.0
sg4
F564348.0
sg5
F0.0
sg6
I00
sg7
F0.0
sg8
F0.0
sg9
S'james.prentice@enron.com'
p299
sg11
F0.0
sg12
F0.0
sg13
F0.0
sg14
F0.0
sg15
F0.0
sg16
F0.0
sg17
F0.0
sg18
F0.0
sg19
F0.0
sg20
F0.0
sg21
F1095040.0
sg22
F0.0
sg23
F208809.0
sg24
F0.0
sg25
F564348.0
sg26
F208809.0
sg27
F0.0
sg28
F886231.0
ssS'GRAY RODNEY'
p300
(dp301
g3
F0.0
sg4
F93585.0
sg5
F0.0
sg6
I00
sg7
F0.0
sg8
F365625.0
sg9
I0
sg11
F0.0
sg12
F0.0
sg13
F0.0
sg14
F0.0
sg15
F0.0
sg16
F0.0
sg17
F0.0
sg18
F680833.0
sg19
F0.0
sg20
F0.0
sg21
F0.0
sg22
F0.0
sg23
F0.0
sg24
F6615.0
sg25
F1146658.0
sg26
F0.0
sg27
F0.0
sg28
F0.0
ssS'PICKERING MARK R'
p302
(dp303
g3
F898.0
sg4
F0.0
sg5
F31653.0
sg6
I00
sg7
F0.8106904231625836
sg8
F0.0
sg9
S'mark.pickering@enron.com'
p304
sg11
F7.0
sg12
F0.0
sg13
F0.0077951002227171495
sg14
F0.0
sg15
F728.0
sg16
F400000.0
sg17
F67.0
sg18
F0.0
sg19
F0.0
sg20
F300000.0
sg21
F28798.0
sg22
F0.0
sg23
F0.0
sg24
F655037.0
sg25
F1386690.0
sg26
F0.0
sg27
F0.0
sg28
F28798.0
ssS'NOLES JAMES L'
p305
(dp306
g3
F0.0
sg4
F774401.0
sg5
F0.0
sg6
I00
sg7
F0.0
sg8
F0.0
sg9
I0
sg11
F0.0
sg12
F0.0
sg13
F0.0
sg14
F-94556.0
sg15
F0.0
sg16
F0.0
sg17
F0.0
sg18
F0.0
sg19
F0.0
sg20
F0.0
sg21
F368705.0
sg22
F0.0
sg23
F463261.0
sg24
F0.0
sg25
F774401.0
sg26
F368705.0
sg27
F0.0
sg28
F0.0
ssS'KEAN STEVEN J'
p307
(dp308
g3
F12754.0
sg4
F0.0
sg5
F41953.0
sg6
I00
sg7
F0.2853222518425592
sg8
F300000.0
sg9
S'steven.kean@enron.com'
p309
sg11
F140.0
sg12
F0.0
sg13
F0.010976948408342482
sg14
F0.0
sg15
F3639.0
sg16
F0.0
sg17
F6759.0
sg18
F1231.0
sg19
F0.0
sg20
F1000000.0
sg21
F6153642.0
sg22
F387.0
sg23
F4131594.0
sg24
F404338.0
sg25
F1747522.0
sg26
F4131594.0
sg27
F0.05725699067909454
sg28
F2022048.0
ssS'FOWLER PEGGY'
p310
(dp311
g3
F517.0
sg4
F0.0
sg5
F0.0
sg6
I00
sg7
F0.019342359767891684
sg8
F0.0
sg9
S'kulvinder.fowler@enron.com'
p312
sg11
F0.0
sg12
F0.0
sg13
F0.0
sg14
F0.0
sg15
F10.0
sg16
F0.0
sg17
F36.0
sg18
F0.0
sg19
F0.0
sg20
F0.0
sg21
F1884748.0
sg22
F0.0
sg23
F560170.0
sg24
F0.0
sg25
F0.0
sg26
F560170.0
sg27
F0.0
sg28
F1324578.0
ssS'WASAFF GEORGE'
p313
(dp314
g3
F400.0
sg4
F831299.0
sg5
F0.0
sg6
I00
sg7
F0.8425
sg8
F200000.0
sg9
S'george.wasaff@enron.com'
p315
sg11
F22.0
sg12
F-583325.0
sg13
F0.055
sg14
F0.0
sg15
F337.0
sg16
F0.0
sg17
F30.0
sg18
F1425.0
sg19
F0.0
sg20
F325000.0
sg21
F2056427.0
sg22
F7.0
sg23
F388167.0
sg24
F259996.0
sg25
F1034395.0
sg26
F388167.0
sg27
F0.23333333333333334
sg28
F1668260.0
ssS'WHITE JR THOMAS E'
p316
(dp317
g3
F0.0
sg4
F0.0
sg5
F81353.0
sg6
I00
sg7
F0.0
sg8
F0.0
sg9
S'thomas.white@enron.com'
p318
sg11
F0.0
sg12
F0.0
sg13
F0.0
sg14
F0.0
sg15
F0.0
sg16
F0.0
sg17
F0.0
sg18
F1085463.0
sg19
F0.0
sg20
F450000.0
sg21
F15144123.0
sg22
F0.0
sg23
F13847074.0
sg24
F317543.0
sg25
F1934359.0
sg26
F13847074.0
sg27
F0.0
sg28
F1297049.0
ssS'CHRISTODOULOU DIOMEDES'
p319
(dp320
g3
F0.0
sg4
F0.0
sg5
F0.0
sg6
I00
sg7
F0.0
sg8
F0.0
sg9
S'diomedes.christodoulou@enron.com'
p321
sg11
F0.0
sg12
F0.0
sg13
F0.0
sg14
F0.0
sg15
F0.0
sg16
F0.0
sg17
F0.0
sg18
F0.0
sg19
F0.0
sg20
F0.0
sg21
F6077885.0
sg22
F0.0
sg23
F950730.0
sg24
F0.0
sg25
F0.0
sg26
F950730.0
sg27
F0.0
sg28
F5127155.0
ssS'ALLEN PHILLIP K'
p322
(dp323
g3
F2902.0
sg4
F2869717.0
sg5
F13868.0
sg6
I00
sg7
F0.4848380427291523
sg8
F304805.0
sg9
S'phillip.allen@enron.com'
p324
sg11
F47.0
sg12
F-3081055.0
sg13
F0.016195727084769126
sg14
F-126027.0
sg15
F1407.0
sg16
F0.0
sg17
F2195.0
sg18
F152.0
sg19
F0.0
sg20
F4175000.0
sg21
F1729541.0
sg22
F65.0
sg23
F126027.0
sg24
F201955.0
sg25
F4484442.0
sg26
F0.0
sg27
F0.029612756264236904
sg28
F1729541.0
ssS'SHARP VICTORIA T'
p325
(dp326
g3
F3136.0
sg4
F187469.0
sg5
F116337.0
sg6
I00
sg7
F0.7898596938775511
sg8
F422158.0
sg9
S'vicki.sharp@enron.com'
p327
sg11
F24.0
sg12
F0.0
sg13
F0.007653061224489796
sg14
F0.0
sg15
F2477.0
sg16
F0.0
sg17
F136.0
sg18
F2401.0
sg19
F0.0
sg20
F600000.0
sg21
F494136.0
sg22
F6.0
sg23
F213063.0
sg24
F248146.0
sg25
F1576511.0
sg26
F213063.0
sg27
F0.04411764705882353
sg28
F281073.0
ssS'JAEDICKE ROBERT'
p328
(dp329
g3
F0.0
sg4
F0.0
sg5
F0.0
sg6
I00
sg7
F0.0
sg8
F0.0
sg9
I0
sg11
F0.0
sg12
F-25000.0
sg13
F0.0
sg14
F-44093.0
sg15
F0.0
sg16
F0.0
sg17
F0.0
sg18
F0.0
sg19
F108750.0
sg20
F0.0
sg21
F431750.0
sg22
F0.0
sg23
F44093.0
sg24
F0.0
sg25
F83750.0
sg26
F0.0
sg27
F0.0
sg28
F431750.0
ssS'WINOKUR JR. HERBERT S'
p330
(dp331
g3
F0.0
sg4
F0.0
sg5
F1413.0
sg6
I00
sg7
F0.0
sg8
F0.0
sg9
I0
sg11
F0.0
sg12
F-25000.0
sg13
F0.0
sg14
F0.0
sg15
F0.0
sg16
F0.0
sg17
F0.0
sg18
F0.0
sg19
F108579.0
sg20
F0.0
sg21
F0.0
sg22
F0.0
sg23
F0.0
sg24
F0.0
sg25
F84992.0
sg26
F0.0
sg27
F0.0
sg28
F0.0
ssS'BROWN MICHAEL'
p332
(dp333
g3
F1486.0
sg4
F0.0
sg5
F49288.0
sg6
I00
sg7
F0.5121130551816958
sg8
F0.0
sg9
S'michael.brown@enron.com'
p334
sg11
F13.0
sg12
F0.0
sg13
F0.008748317631224764
sg14
F0.0
sg15
F761.0
sg16
F0.0
sg17
F41.0
sg18
F0.0
sg19
F0.0
sg20
F0.0
sg21
F0.0
sg22
F1.0
sg23
F0.0
sg24
F0.0
sg25
F49288.0
sg26
F0.0
sg27
F0.024390243902439025
sg28
F0.0
ssS'BADUM JAMES P'
p335
(dp336
g3
F0.0
sg4
F178980.0
sg5
F3486.0
sg6
I00
sg7
F0.0
sg8
F0.0
sg9
I0
sg11
F0.0
sg12
F0.0
sg13
F0.0
sg14
F0.0
sg15
F0.0
sg16
F0.0
sg17
F0.0
sg18
F0.0
sg19
F0.0
sg20
F0.0
sg21
F257817.0
sg22
F0.0
sg23
F0.0
sg24
F0.0
sg25
F182466.0
sg26
F0.0
sg27
F0.0
sg28
F257817.0
ssS'HUGHES JAMES A'
p337
(dp338
g3
F719.0
sg4
F0.0
sg5
F0.0
sg6
I00
sg7
F0.8191933240611962
sg8
F0.0
sg9
S'james.hughes@enron.com'
p339
sg11
F35.0
sg12
F0.0
sg13
F0.048678720445062586
sg14
F0.0
sg15
F589.0
sg16
F0.0
sg17
F34.0
sg18
F0.0
sg19
F0.0
sg20
F0.0
sg21
F1118394.0
sg22
F5.0
sg23
F363428.0
sg24
F0.0
sg25
F0.0
sg26
F363428.0
sg27
F0.14705882352941177
sg28
F754966.0
ssS'REYNOLDS LAWRENCE'
p340
(dp341
g3
F0.0
sg4
F51365.0
sg5
F8409.0
sg6
I00
sg7
F0.0
sg8
F156250.0
sg9
I0
sg11
F0.0
sg12
F-200000.0
sg13
F0.0
sg14
F-140264.0
sg15
F0.0
sg16
F0.0
sg17
F0.0
sg18
F202052.0
sg19
F0.0
sg20
F100000.0
sg21
F4221891.0
sg22
F0.0
sg23
F201483.0
sg24
F76399.0
sg25
F394475.0
sg26
F61219.0
sg27
F0.0
sg28
F4160672.0
ssS'DIMICHELE RICHARD G'
p342
(dp343
g3
F0.0
sg4
F0.0
sg5
F35812.0
sg6
I00
sg7
F0.0
sg8
F694862.0
sg9
S'richard.dimichele@enron.com'
p344
sg11
F0.0
sg12
F0.0
sg13
F0.0
sg14
F0.0
sg15
F0.0
sg16
F0.0
sg17
F0.0
sg18
F374689.0
sg19
F0.0
sg20
F1000000.0
sg21
F8317782.0
sg22
F0.0
sg23
F126027.0
sg24
F262788.0
sg25
F2368151.0
sg26
F126027.0
sg27
F0.0
sg28
F8191755.0
ssS'BHATNAGAR SANJAY'
p345
(dp346
g3
F523.0
sg4
F0.0
sg5
F0.0
sg6
I00
sg7
F0.8852772466539197
sg8
F0.0
sg9
S'sanjay.bhatnagar@enron.com'
p347
sg11
F0.0
sg12
F0.0
sg13
F0.0
sg14
F15456290.0
sg15
F463.0
sg16
F0.0
sg17
F29.0
sg18
F137864.0
sg19
F137864.0
sg20
F0.0
sg21
F0.0
sg22
F1.0
sg23
F-2604490.0
sg24
F0.0
sg25
F15456290.0
sg26
F12851800.0
sg27
F0.034482758620689655
sg28
F2604490.0
ssS'CARTER REBECCA C'
p348
(dp349
g3
F312.0
sg4
F0.0
sg5
F0.0
sg6
I00
sg7
F0.6282051282051282
sg8
F75000.0
sg9
S'rebecca.carter@enron.com'
p350
sg11
F29.0
sg12
F-159792.0
sg13
F0.09294871794871795
sg14
F-307301.0
sg15
F196.0
sg16
F0.0
sg17
F15.0
sg18
F540.0
sg19
F0.0
sg20
F300000.0
sg21
F0.0
sg22
F7.0
sg23
F307301.0
sg24
F261809.0
sg25
F477557.0
sg26
F0.0
sg27
F0.4666666666666667
sg28
F0.0
ssS'BUCHANAN HAROLD G'
p351
(dp352
g3
F1088.0
sg4
F0.0
sg5
F600.0
sg6
I00
sg7
F0.021139705882352942
sg8
F304805.0
sg9
S'john.buchanan@enron.com'
p353
sg11
F0.0
sg12
F0.0
sg13
F0.0
sg14
F0.0
sg15
F23.0
sg16
F0.0
sg17
F125.0
sg18
F1215.0
sg19
F0.0
sg20
F500000.0
sg21
F1014505.0
sg22
F0.0
sg23
F189041.0
sg24
F248017.0
sg25
F1054637.0
sg26
F189041.0
sg27
F0.0
sg28
F825464.0
ssS'YEAP SOON'
p354
(dp355
g3
F0.0
sg4
F0.0
sg5
F55097.0
sg6
I00
sg7
F0.0
sg8
F0.0
sg9
I0
sg11
F0.0
sg12
F0.0
sg13
F0.0
sg14
F0.0
sg15
F0.0
sg16
F0.0
sg17
F0.0
sg18
F0.0
sg19
F0.0
sg20
F0.0
sg21
F192758.0
sg22
F0.0
sg23
F0.0
sg24
F0.0
sg25
F55097.0
sg26
F0.0
sg27
F0.0
sg28
F192758.0
ssS'MURRAY JULIA H'
p356
(dp357
g3
F2192.0
sg4
F0.0
sg5
F57580.0
sg6
I00
sg7
F0.1802007299270073
sg8
F125000.0
sg9
S'julia.murray@enron.com'
p358
sg11
F11.0
sg12
F0.0
sg13
F0.005018248175182482
sg14
F0.0
sg15
F395.0
sg16
F0.0
sg17
F45.0
sg18
F330.0
sg19
F0.0
sg20
F400000.0
sg21
F597461.0
sg22
F2.0
sg23
F196983.0
sg24
F229284.0
sg25
F812194.0
sg26
F196983.0
sg27
F0.044444444444444446
sg28
F400478.0
ssS'GARLAND C KEVIN'
p359
(dp360
g3
F209.0
sg4
F0.0
sg5
F48405.0
sg6
I00
sg7
F0.8516746411483254
sg8
F375304.0
sg9
S'kevin.garland@enron.com'
p361
sg11
F10.0
sg12
F0.0
sg13
F0.04784688995215311
sg14
F0.0
sg15
F178.0
sg16
F0.0
sg17
F44.0
sg18
F60814.0
sg19
F0.0
sg20
F850000.0
sg21
F896153.0
sg22
F27.0
sg23
F259907.0
sg24
F231946.0
sg25
F1566469.0
sg26
F259907.0
sg27
F0.6136363636363636
sg28
F636246.0
ssS'DODSON KEITH'
p362
(dp363
g3
F176.0
sg4
F0.0
sg5
F28164.0
sg6
I00
sg7
F0.6477272727272727
sg8
F0.0
sg9
S'keith.dodson@enron.com'
p364
sg11
F10.0
sg12
F0.0
sg13
F0.056818181818181816
sg14
F0.0
sg15
F114.0
sg16
F0.0
sg17
F14.0
sg18
F774.0
sg19
F0.0
sg20
F70000.0
sg21
F0.0
sg22
F3.0
sg23
F0.0
sg24
F221003.0
sg25
F319941.0
sg26
F0.0
sg27
F0.21428571428571427
sg28
F0.0
ssS'YEAGER F SCOTT'
p365
(dp366
g3
F0.0
sg4
F0.0
sg5
F53947.0
sg6
I01
sg7
F0.0
sg8
F0.0
sg9
S'scott.yeager@enron.com'
p367
sg11
F0.0
sg12
F0.0
sg13
F0.0
sg14
F0.0
sg15
F0.0
sg16
F0.0
sg17
F0.0
sg18
F147950.0
sg19
F0.0
sg20
F0.0
sg21
F11884758.0
sg22
F0.0
sg23
F3576206.0
sg24
F158403.0
sg25
F360300.0
sg26
F3576206.0
sg27
F0.0
sg28
F8308552.0
ssS'HIRKO JOSEPH'
p368
(dp369
g3
F0.0
sg4
F10259.0
sg5
F77978.0
sg6
I01
sg7
F0.0
sg8
F0.0
sg9
S'joe.hirko@enron.com'
p370
sg11
F0.0
sg12
F0.0
sg13
F0.0
sg14
F0.0
sg15
F0.0
sg16
F0.0
sg17
F0.0
sg18
F2856.0
sg19
F0.0
sg20
F0.0
sg21
F30766064.0
sg22
F0.0
sg23
F0.0
sg24
F0.0
sg25
F91093.0
sg26
F0.0
sg27
F0.0
sg28
F30766064.0
ssS'DIETRICH JANET R'
p371
(dp372
g3
F2572.0
sg4
F0.0
sg5
F3475.0
sg6
I00
sg7
F0.73950233281493
sg8
F556416.0
sg9
S'janet.dietrich@enron.com'
p373
sg11
F305.0
sg12
F0.0
sg13
F0.11858475894245724
sg14
F0.0
sg15
F1902.0
sg16
F0.0
sg17
F63.0
sg18
F473.0
sg19
F0.0
sg20
F600000.0
sg21
F1865087.0
sg22
F14.0
sg23
F315068.0
sg24
F250100.0
sg25
F1410464.0
sg26
F315068.0
sg27
F0.2222222222222222
sg28
F1550019.0
ssS'DERRICK JR. JAMES V'
p374
(dp375
g3
F2181.0
sg4
F0.0
sg5
F51124.0
sg6
I00
sg7
F0.6423658872077029
sg8
F484000.0
sg9
S'james.derrick@enron.com'
p376
sg11
F64.0
sg12
F-1284000.0
sg13
F0.029344337459880788
sg14
F-1787380.0
sg15
F1401.0
sg16
F0.0
sg17
F909.0
sg18
F7482.0
sg19
F0.0
sg20
F800000.0
sg21
F8831913.0
sg22
F20.0
sg23
F1787380.0
sg24
F492375.0
sg25
F550981.0
sg26
F0.0
sg27
F0.022002200220022004
sg28
F8831913.0
ssS'FREVERT MARK A'
p377
(dp378
g3
F3275.0
sg4
F6426990.0
sg5
F86987.0
sg6
I00
sg7
F0.909618320610687
sg8
F1617011.0
sg9
S'mark.frevert@enron.com'
p379
sg11
F242.0
sg12
F-3367011.0
sg13
F0.07389312977099237
sg14
F0.0
sg15
F2979.0
sg16
F2000000.0
sg17
F21.0
sg18
F7427621.0
sg19
F0.0
sg20
F2000000.0
sg21
F14622185.0
sg22
F6.0
sg23
F4188667.0
sg24
F1060932.0
sg25
F17252530.0
sg26
F4188667.0
sg27
F0.2857142857142857
sg28
F10433518.0
ssS'PAI LOU L'
p380
(dp381
g3
F0.0
sg4
F0.0
sg5
F32047.0
sg6
I00
sg7
F0.0
sg8
F0.0
sg9
S'lou.pai@enron.com'
p382
sg11
F0.0
sg12
F0.0
sg13
F0.0
sg14
F0.0
sg15
F0.0
sg16
F0.0
sg17
F0.0
sg18
F1829457.0
sg19
F0.0
sg20
F1000000.0
sg21
F23817930.0
sg22
F0.0
sg23
F8453763.0
sg24
F261879.0
sg25
F3123383.0
sg26
F8453763.0
sg27
F0.0
sg28
F15364167.0
ssS'BAY FRANKLIN R'
p383
(dp384
g3
F0.0
sg4
F260455.0
sg5
F129142.0
sg6
I00
sg7
F0.0
sg8
F0.0
sg9
S'frank.bay@enron.com'
p385
sg11
F0.0
sg12
F-201641.0
sg13
F0.0
sg14
F-82782.0
sg15
F0.0
sg16
F0.0
sg17
F0.0
sg18
F69.0
sg19
F0.0
sg20
F400000.0
sg21
F63014.0
sg22
F0.0
sg23
F145796.0
sg24
F239671.0
sg25
F827696.0
sg26
F63014.0
sg27
F0.0
sg28
F0.0
ssS'HAYSLETT RODERICK J'
p386
(dp387
g3
F2649.0
sg4
F0.0
sg5
F0.0
sg6
I00
sg7
F0.21555303888259722
sg8
F0.0
sg9
S'rod.hayslett@enron.com'
p388
sg11
F35.0
sg12
F0.0
sg13
F0.01321253303133258
sg14
F0.0
sg15
F571.0
sg16
F0.0
sg17
F1061.0
sg18
F0.0
sg19
F0.0
sg20
F0.0
sg21
F346663.0
sg22
F38.0
sg23
F346663.0
sg24
F0.0
sg25
F0.0
sg26
F346663.0
sg27
F0.03581526861451461
sg28
F0.0
ssS'FUGH JOHN L'
p389
(dp390
g3
F0.0
sg4
F50591.0
sg5
F0.0
sg6
I00
sg7
F0.0
sg8
F0.0
sg9
I0
sg11
F0.0
sg12
F0.0
sg13
F0.0
sg14
F0.0
sg15
F0.0
sg16
F0.0
sg17
F0.0
sg18
F0.0
sg19
F0.0
sg20
F0.0
sg21
F176378.0
sg22
F0.0
sg23
F0.0
sg24
F0.0
sg25
F50591.0
sg26
F0.0
sg27
F0.0
sg28
F176378.0
ssS'FALLON JAMES B'
p391
(dp392
g3
F1755.0
sg4
F0.0
sg5
F95924.0
sg6
I00
sg7
F0.913960113960114
sg8
F374347.0
sg9
S'jim.fallon@enron.com'
p393
sg11
F42.0
sg12
F0.0
sg13
F0.023931623931623933
sg14
F0.0
sg15
F1604.0
sg16
F0.0
sg17
F75.0
sg18
F401481.0
sg19
F0.0
sg20
F2500000.0
sg21
F2332399.0
sg22
F37.0
sg23
F1392142.0
sg24
F304588.0
sg25
F3676340.0
sg26
F1392142.0
sg27
F0.49333333333333335
sg28
F940257.0
ssS'KOENIG MARK E'
p394
(dp395
g3
F2374.0
sg4
F0.0
sg5
F127017.0
sg6
I01
sg7
F0.9566133108677338
sg8
F300000.0
sg9
S'mark.koenig@enron.com'
p396
sg11
F53.0
sg12
F0.0
sg13
F0.02232518955349621
sg14
F0.0
sg15
F2271.0
sg16
F0.0
sg17
F61.0
sg18
F150458.0
sg19
F0.0
sg20
F700000.0
sg21
F1920055.0
sg22
F15.0
sg23
F1248318.0
sg24
F309946.0
sg25
F1587421.0
sg26
F1248318.0
sg27
F0.2459016393442623
sg28
F671737.0
ssS'SAVAGE FRANK'
p397
(dp398
g3
F0.0
sg4
F0.0
sg5
F0.0
sg6
I00
sg7
F0.0
sg8
F0.0
sg9
I0
sg11
F0.0
sg12
F-121284.0
sg13
F0.0
sg14
F0.0
sg15
F0.0
sg16
F0.0
sg17
F0.0
sg18
F0.0
sg19
F125034.0
sg20
F0.0
sg21
F0.0
sg22
F0.0
sg23
F0.0
sg24
F0.0
sg25
F3750.0
sg26
F0.0
sg27
F0.0
sg28
F0.0
ssS'IZZO LAWRENCE L'
p399
(dp400
g3
F496.0
sg4
F0.0
sg5
F28093.0
sg6
I00
sg7
F0.8810483870967742
sg8
F312500.0
sg9
S'larry.izzo@enron.com'
p401
sg11
F28.0
sg12
F0.0
sg13
F0.056451612903225805
sg14
F0.0
sg15
F437.0
sg16
F0.0
sg17
F19.0
sg18
F1553729.0
sg19
F0.0
sg20
F0.0
sg21
F5819980.0
sg22
F5.0
sg23
F3654808.0
sg24
F85274.0
sg25
F1979596.0
sg26
F3654808.0
sg27
F0.2631578947368421
sg28
F2165172.0
ssS'TILNEY ELIZABETH A'
p402
(dp403
g3
F460.0
sg4
F0.0
sg5
F0.0
sg6
I00
sg7
F0.8239130434782609
sg8
F275000.0
sg9
S'elizabeth.tilney@enron.com'
p404
sg11
F10.0
sg12
F-575000.0
sg13
F0.021739130434782608
sg14
F0.0
sg15
F379.0
sg16
F0.0
sg17
F19.0
sg18
F152055.0
sg19
F0.0
sg20
F300000.0
sg21
F1168042.0
sg22
F11.0
sg23
F576792.0
sg24
F247338.0
sg25
F399393.0
sg26
F576792.0
sg27
F0.5789473684210527
sg28
F591250.0
ssS'MARTIN AMANDA K'
p405
(dp406
g3
F1522.0
sg4
F85430.0
sg5
F8211.0
sg6
I00
sg7
F0.31340341655716164
sg8
F5145434.0
sg9
S'a..martin@enron.com'
p407
sg11
F8.0
sg12
F0.0
sg13
F0.005256241787122208
sg14
F0.0
sg15
F477.0
sg16
F0.0
sg17
F230.0
sg18
F2818454.0
sg19
F0.0
sg20
F0.0
sg21
F2070306.0
sg22
F0.0
sg23
F0.0
sg24
F349487.0
sg25
F8407016.0
sg26
F0.0
sg27
F0.0
sg28
F2070306.0
ssS'BUY RICHARD B'
p408
(dp409
g3
F3523.0
sg4
F649584.0
sg5
F0.0
sg6
I00
sg7
F0.6622196991200682
sg8
F769862.0
sg9
S'rick.buy@enron.com'
p410
sg11
F156.0
sg12
F-694862.0
sg13
F0.04428044280442804
sg14
F0.0
sg15
F2333.0
sg16
F0.0
sg17
F1053.0
sg18
F400572.0
sg19
F0.0
sg20
F900000.0
sg21
F3444470.0
sg22
F71.0
sg23
F901657.0
sg24
F330546.0
sg25
F2355702.0
sg26
F901657.0
sg27
F0.06742640075973409
sg28
F2542813.0
ssS'GRAMM WENDY L'
p411
(dp412
g3
F0.0
sg4
F0.0
sg5
F0.0
sg6
I00
sg7
F0.0
sg8
F0.0
sg9
I0
sg11
F0.0
sg12
F0.0
sg13
F0.0
sg14
F0.0
sg15
F0.0
sg16
F0.0
sg17
F0.0
sg18
F0.0
sg19
F119292.0
sg20
F0.0
sg21
F0.0
sg22
F0.0
sg23
F0.0
sg24
F0.0
sg25
F119292.0
sg26
F0.0
sg27
F0.0
sg28
F0.0
ssS'CAUSEY RICHARD A'
p413
(dp414
g3
F1892.0
sg4
F0.0
sg5
F30674.0
sg6
I01
sg7
F0.837737843551797
sg8
F350000.0
sg9
S'richard.causey@enron.com'
p415
sg11
F58.0
sg12
F-235000.0
sg13
F0.0306553911205074
sg14
F0.0
sg15
F1585.0
sg16
F0.0
sg17
F49.0
sg18
F307895.0
sg19
F0.0
sg20
F1000000.0
sg21
F2502063.0
sg22
F12.0
sg23
F2502063.0
sg24
F415189.0
sg25
F1868758.0
sg26
F2502063.0
sg27
F0.24489795918367346
sg28
F0.0
ssS'TAYLOR MITCHELL S'
p416
(dp417
g3
F533.0
sg4
F227449.0
sg5
F0.0
sg6
I00
sg7
F0.5628517823639775
sg8
F0.0
sg9
S'mitchell.taylor@enron.com'
p418
sg11
F0.0
sg12
F0.0
sg13
F0.0
sg14
F0.0
sg15
F300.0
sg16
F0.0
sg17
F29.0
sg18
F0.0
sg19
F0.0
sg20
F600000.0
sg21
F3745048.0
sg22
F0.0
sg23
F563798.0
sg24
F265214.0
sg25
F1092663.0
sg26
F563798.0
sg27
F0.0
sg28
F3181250.0
ssS'DONAHUE JR JEFFREY M'
p419
(dp420
g3
F865.0
sg4
F0.0
sg5
F96268.0
sg6
I00
sg7
F0.892485549132948
sg8
F0.0
sg9
S'jeff.donahue@enron.com'
p421
sg11
F188.0
sg12
F-300000.0
sg13
F0.21734104046242775
sg14
F0.0
sg15
F772.0
sg16
F0.0
sg17
F22.0
sg18
F891.0
sg19
F0.0
sg20
F800000.0
sg21
F1080988.0
sg22
F11.0
sg23
F315068.0
sg24
F278601.0
sg25
F875760.0
sg26
F315068.0
sg27
F0.5
sg28
F765920.0
ssS'GLISAN JR BEN F'
p422
(dp423
g3
F873.0
sg4
F0.0
sg5
F125978.0
sg6
I01
sg7
F1.0011454753722795
sg8
F71023.0
sg9
S'ben.glisan@enron.com'
p424
sg11
F52.0
sg12
F0.0
sg13
F0.05956471935853379
sg14
F0.0
sg15
F874.0
sg16
F0.0
sg17
F16.0
sg18
F200308.0
sg19
F0.0
sg20
F600000.0
sg21
F778546.0
sg22
F6.0
sg23
F393818.0
sg24
F274975.0
sg25
F1272284.0
sg26
F393818.0
sg27
F0.375
sg28
F384728.0
ss.